(lp0
(lp1
S'Barnhart, Ralph'
p2
aS'683-2341'
p3
aa(lp4
S'Chary'
p5
aS'12345'
p6
aa(lp7
S'Jones, Janet'
p8
aS'483-5432-78236847'
p9
aa(lp10
S'Meyers, Chris'
p11
aS'343-4349'
p12
aa(lp13
S'Naveen'
p14
aS'970445583'
p15
aa(lp16
S'Nelson, Eric'
p17
aS'485-2689'
p18
aa(lp19
S'Prefect, Ford'
p20
aS'987-6543'
p21
aa(lp22
S'Rajesh'
p23
aS'7890001'
p24
aa(lp25
S'Smith, Bob'
p26
aS'689-1234'
p27
aa(lp28
S'Smith, Robert'
p29
ag27
aa(lp30
S'Sssss'
p31
aS'34123543'
p32
aa(lp33
S'Zigler, Mary'
p34
aS'567-8901'
p35
aa(lp36
S'fhsdklfsdklf'
p37
aS'895234895'
p38
aa(lp39
S'fhsdklfsdklf'
p40
aS'895234895'
p41
aa.