(lp0
(lp1
S''
p2
ag2
aa(lp3
S'Barnhart, Ralph'
p4
aS'683-2341'
p5
aa(lp6
S'Harish'
p7
aS'0489532084'
p8
aa(lp9
S'Jones, Janet'
p10
aS'483-5432'
p11
aa(lp12
S'Meyers, Chris'
p13
aS'343-4349'
p14
aa(lp15
S'Nelson, Eric'
p16
aS'485-2689'
p17
aa(lp18
S'Prefect, Ford'
p19
aS'987-6543'
p20
aa(lp21
S'Smith, Bob'
p22
aS'689-1234'
p23
aa(lp24
S'Smith, Robert'
p25
ag23
aa(lp26
S'Zigler, Mary'
p27
aS'567-8901'
p28
aa.